target datalayout = "e-m:e-p270:32:32-p271:32:32-p272:64:64-i64:64-i128:128-f80:128-n8:16:32:64-S128"
target triple = "x86_64-pc-linux-gnu"

%struct.BrinDesc = type { ptr, ptr, ptr, ptr, i32, [0 x ptr] }
%struct.TupleDescData = type { i32, i32, i32, i32, ptr, [0 x %struct.CompactAttribute] }
%struct.CompactAttribute = type { i32, i16, i8, i8, i8, i8, i8, i8, i8 }
%struct.BrinTuple = type { i32, i8 }

; Function Attrs: inlinehint nounwind uwtable
define internal i32 @BITMAPLEN(i32 noundef %0) #3 {
  %2 = alloca i32, align 4
  store i32 %0, ptr %2, align 4
  %3 = load i32, ptr %2, align 4
  %4 = add i32 %3, 7
  %5 = sdiv i32 %4, 8
  ret i32 %5
}

; Function Attrs: nounwind uwtable
define dso_local ptr @brin_form_placeholder_tuple(ptr noundef %0, i32 noundef %1, ptr noundef %2) #0 {
  %4 = alloca ptr, align 8
  %5 = alloca i32, align 4
  %6 = alloca ptr, align 8
  %7 = alloca i64, align 8
  %8 = alloca i64, align 8
  %9 = alloca ptr, align 8
  %10 = alloca i32, align 4
  %11 = alloca ptr, align 8
  %12 = alloca i32, align 4
  store ptr %0, ptr %4, align 8
  store i32 %1, ptr %5, align 4
  store ptr %2, ptr %6, align 8
  call void @llvm.lifetime.start.p0(i64 8, ptr %7) #7
  call void @llvm.lifetime.start.p0(i64 8, ptr %8) #7
  call void @llvm.lifetime.start.p0(i64 8, ptr %9) #7
  call void @llvm.lifetime.start.p0(i64 4, ptr %10) #7
  call void @llvm.lifetime.start.p0(i64 8, ptr %11) #7
  call void @llvm.lifetime.start.p0(i64 4, ptr %12) #7
  store i64 5, ptr %7, align 8
  %13 = load ptr, ptr %4, align 8
  %14 = getelementptr inbounds nuw %struct.BrinDesc, ptr %13, i32 0, i32 2
  %15 = load ptr, ptr %14, align 8
  %16 = getelementptr inbounds nuw %struct.TupleDescData, ptr %15, i32 0, i32 0
  %17 = load i32, ptr %16, align 8
  %18 = mul i32 %17, 2
  %19 = call i32 @BITMAPLEN(i32 noundef %18)
  %20 = sext i32 %19 to i64
  %21 = load i64, ptr %7, align 8
  %22 = add i64 %21, %20
  store i64 %22, ptr %7, align 8
  %23 = load i64, ptr %7, align 8
  %24 = add i64 %23, 7
  %25 = and i64 %24, -8
  store i64 %25, ptr %8, align 8
  store i64 %25, ptr %7, align 8
  %26 = load i64, ptr %7, align 8
  %27 = call ptr @palloc0(i64 noundef %26)
  store ptr %27, ptr %9, align 8
  %28 = load i32, ptr %5, align 4
  %29 = load ptr, ptr %9, align 8
  %30 = getelementptr inbounds nuw %struct.BrinTuple, ptr %29, i32 0, i32 0
  store i32 %28, ptr %30, align 4
  %31 = load i64, ptr %8, align 8
  %32 = trunc i64 %31 to i8
  %33 = load ptr, ptr %9, align 8
  %34 = getelementptr inbounds nuw %struct.BrinTuple, ptr %33, i32 0, i32 1
  store i8 %32, ptr %34, align 4
  %35 = load ptr, ptr %9, align 8
  %36 = getelementptr inbounds nuw %struct.BrinTuple, ptr %35, i32 0, i32 1
  %37 = load i8, ptr %36, align 4
  %38 = zext i8 %37 to i32
  %39 = or i32 %38, 224
  %40 = trunc i32 %39 to i8
  store i8 %40, ptr %36, align 4
  %41 = load ptr, ptr %9, align 8
  %42 = getelementptr inbounds nuw i8, ptr %41, i64 5
  %43 = getelementptr inbounds i8, ptr %42, i64 -1
  store ptr %43, ptr %11, align 8
  store i32 128, ptr %12, align 4
  store i32 0, ptr %10, align 4
  br label %44

44:                                               ; preds = %69, %3
  %45 = load i32, ptr %10, align 4
  %46 = load ptr, ptr %4, align 8
  %47 = getelementptr inbounds nuw %struct.BrinDesc, ptr %46, i32 0, i32 2
  %48 = load ptr, ptr %47, align 8
  %49 = getelementptr inbounds nuw %struct.TupleDescData, ptr %48, i32 0, i32 0
  %50 = load i32, ptr %49, align 8
  %51 = icmp slt i32 %45, %50
  br i1 %51, label %52, label %72

52:                                               ; preds = %44
  %53 = load i32, ptr %12, align 4
  %54 = icmp ne i32 %53, 128
  br i1 %54, label %55, label %58

55:                                               ; preds = %52
  %56 = load i32, ptr %12, align 4
  %57 = shl i32 %56, 1
  store i32 %57, ptr %12, align 4
  br label %62

58:                                               ; preds = %52
  %59 = load ptr, ptr %11, align 8
  %60 = getelementptr inbounds i8, ptr %59, i64 1
  store ptr %60, ptr %11, align 8
  %61 = load ptr, ptr %11, align 8
  store i8 0, ptr %61, align 1
  store i32 1, ptr %12, align 4
  br label %62

62:                                               ; preds = %58, %55
  %63 = load i32, ptr %12, align 4
  %64 = load ptr, ptr %11, align 8
  %65 = load i8, ptr %64, align 1
  %66 = zext i8 %65 to i32
  %67 = or i32 %66, %63
  %68 = trunc i32 %67 to i8
  store i8 %68, ptr %64, align 1
  br label %69

69:                                               ; preds = %62
  %70 = load i32, ptr %10, align 4
  %71 = add i32 %70, 1
  store i32 %71, ptr %10, align 4
  br label %44, !llvm.loop !15

72:                                               ; preds = %44
  %73 = load i64, ptr %7, align 8
  %74 = load ptr, ptr %6, align 8
  store i64 %73, ptr %74, align 8
  %75 = load ptr, ptr %9, align 8
  call void @llvm.lifetime.end.p0(i64 4, ptr %12) #7
  call void @llvm.lifetime.end.p0(i64 8, ptr %11) #7
  call void @llvm.lifetime.end.p0(i64 4, ptr %10) #7
  call void @llvm.lifetime.end.p0(i64 8, ptr %9) #7
  call void @llvm.lifetime.end.p0(i64 8, ptr %8) #7
  call void @llvm.lifetime.end.p0(i64 8, ptr %7) #7
  ret ptr %75
}