; Function Attrs: nounwind uwtable
define dso_local noundef ptr @brin_form_placeholder_tuple(ptr noundef readonly captures(none) %0, i32 noundef %1, ptr noundef writeonly captures(none) %2) local_unnamed_addr #0 {
  %4 = getelementptr inbounds nuw i8, ptr %0, i64 16
  %5 = load ptr, ptr %4, align 8
  %6 = load i32, ptr %5, align 8
  %7 = shl i32 %6, 1
  %8 = add i32 %7, 7
  %9 = sdiv i32 %8, 8
  %narrow = add nsw i32 %9, 12
  %10 = and i32 %narrow, -8
  %11 = sext i32 %10 to i64
  %12 = tail call ptr @palloc0(i64 noundef %11) #9
  store i32 %1, ptr %12, align 4
  %13 = getelementptr inbounds nuw i8, ptr %12, i64 4
  %14 = trunc i32 %narrow to i8
  %15 = and i8 %14, 24
  %16 = or disjoint i8 %15, -32
  store i8 %16, ptr %13, align 4
  %17 = load ptr, ptr %4, align 8
  %18 = load i32, ptr %17, align 8
  %19 = icmp sgt i32 %18, 0
  br i1 %19, label %.lr.ph, label %._crit_edge

.lr.ph:                                           ; preds = %3, %25
  %20 = phi i8 [ %28, %25 ], [ %16, %3 ]
  %.026 = phi i32 [ %.1, %25 ], [ 128, %3 ]
  %.02125 = phi ptr [ %.122, %25 ], [ %13, %3 ]
  %.02324 = phi i32 [ %29, %25 ], [ 0, %3 ]
  %.not = icmp eq i32 %.026, 128
  br i1 %.not, label %23, label %21

21:                                               ; preds = %.lr.ph
  %22 = shl i32 %.026, 1
  br label %25

23:                                               ; preds = %.lr.ph
  %24 = getelementptr inbounds nuw i8, ptr %.02125, i64 1
  store i8 0, ptr %24, align 1
  br label %25

25:                                               ; preds = %23, %21
  %26 = phi i8 [ %20, %21 ], [ 0, %23 ]
  %.122 = phi ptr [ %.02125, %21 ], [ %24, %23 ]
  %.1 = phi i32 [ %22, %21 ], [ 1, %23 ]
  %27 = trunc i32 %.1 to i8
  %28 = or i8 %26, %27
  store i8 %28, ptr %.122, align 1
  %29 = add nuw nsw i32 %.02324, 1
  %30 = load ptr, ptr %4, align 8
  %31 = load i32, ptr %30, align 8
  %32 = icmp slt i32 %29, %31
  br i1 %32, label %.lr.ph, label %._crit_edge, !llvm.loop !15

._crit_edge:                                      ; preds = %25, %3
  store i64 %11, ptr %2, align 8
  ret ptr %12
}